target datalayout = "e-m:e-p270:32:32-p271:32:32-p272:64:64-i64:64-i128:128-f80:128-n8:16:32:64-S128"
target triple = "x86_64-pc-linux-gnu"

%struct.pysqlite_state = type { ptr, ptr, ptr, ptr, ptr, ptr, ptr, ptr, ptr, ptr, ptr, ptr, ptr, i32, i32, ptr, ptr, ptr, ptr, ptr, ptr, ptr, ptr, ptr, ptr, ptr, ptr, ptr, ptr }

@.str.210 = private unnamed_addr constant [10 x i8] c"functools\00", align 1
@.str.211 = private unnamed_addr constant [10 x i8] c"lru_cache\00", align 1

; Function Attrs: inlinehint nounwind uwtable
define internal ptr @pysqlite_get_state(ptr noundef %0) #3 {
  %2 = alloca ptr, align 8
  %3 = alloca ptr, align 8
  store ptr %0, ptr %2, align 8, !tbaa !15
  call void @llvm.lifetime.start.p0(i64 8, ptr %3) #6
  %4 = load ptr, ptr %2, align 8, !tbaa !15
  %5 = call ptr @PyModule_GetState(ptr noundef %4)
  store ptr %5, ptr %3, align 8, !tbaa !17
  %6 = load ptr, ptr %3, align 8, !tbaa !17
  call void @llvm.lifetime.end.p0(i64 8, ptr %3) #6
  ret ptr %6
}

; Function Attrs: nounwind uwtable
define internal i32 @load_functools_lru_cache(ptr noundef %0) #0 {
  %2 = alloca i32, align 4
  %3 = alloca ptr, align 8
  %4 = alloca ptr, align 8
  %5 = alloca i32, align 4
  store ptr %0, ptr %3, align 8, !tbaa !15
  call void @llvm.lifetime.start.p0(i64 8, ptr %4) #6
  %6 = load ptr, ptr %3, align 8, !tbaa !15
  %7 = call ptr @pysqlite_get_state(ptr noundef %6)
  store ptr %7, ptr %4, align 8, !tbaa !17
  %8 = call ptr @PyImport_ImportModuleAttrString(ptr noundef @.str.210, ptr noundef @.str.211)
  %9 = load ptr, ptr %4, align 8, !tbaa !17
  %10 = getelementptr inbounds nuw %struct.pysqlite_state, ptr %9, i32 0, i32 11
  store ptr %8, ptr %10, align 8, !tbaa !37
  %11 = load ptr, ptr %4, align 8, !tbaa !17
  %12 = getelementptr inbounds nuw %struct.pysqlite_state, ptr %11, i32 0, i32 11
  %13 = load ptr, ptr %12, align 8, !tbaa !37
  %14 = icmp eq ptr %13, null
  br i1 %14, label %15, label %16

15:                                               ; preds = %1
  store i32 -1, ptr %2, align 4
  store i32 1, ptr %5, align 4
  br label %17

16:                                               ; preds = %1
  store i32 0, ptr %2, align 4
  store i32 1, ptr %5, align 4
  br label %17

17:                                               ; preds = %16, %15
  call void @llvm.lifetime.end.p0(i64 8, ptr %4) #6
  %18 = load i32, ptr %2, align 4
  ret i32 %18
}