; Function Attrs: nounwind uwtable
define internal fastcc range(i32 -1, 1) i32 @load_functools_lru_cache(ptr noundef %0) unnamed_addr #2 {
  %2 = tail call ptr @PyModule_GetState(ptr noundef %0) #5
  %3 = tail call ptr @PyImport_ImportModuleAttrString(ptr noundef nonnull @.str.210, ptr noundef nonnull @.str.211) #5
  %4 = getelementptr inbounds nuw i8, ptr %2, i64 88
  store ptr %3, ptr %4, align 8, !tbaa !34
  %5 = icmp eq ptr %3, null
  %. = sext i1 %5 to i32
  ret i32 %.
}